target datalayout = "e-m:e-p270:32:32-p271:32:32-p272:64:64-i64:64-i128:128-f80:128-n8:16:32:64-S128"
target triple = "x86_64-pc-linux-gnu"

%struct.PLpgSQL_execstate = type { ptr, ptr, ptr, i64, i8, i32, i32, i8, i8, i8, i8, ptr, ptr, ptr, ptr, ptr, ptr, ptr, i32, i32, ptr, ptr, ptr, ptr, ptr, ptr, ptr, ptr, ptr, ptr, i64, ptr, ptr, ptr, ptr, ptr }
%struct.ExprContext = type { i32, ptr, ptr, ptr, ptr, ptr, ptr, ptr, ptr, ptr, i64, i8, i64, i8, ptr, ptr, ptr, ptr }
%struct.ParamListInfoData = type { ptr, ptr, ptr, ptr, ptr, ptr, ptr, i32, [0 x %struct.ParamExternData] }
%struct.ParamExternData = type { i64, i8, i16, i32 }
%struct.PLpgSQL_rec = type { i32, i32, ptr, i32, i8, i8, ptr, ptr, i32, i32, ptr }
%struct.ExpandedRecordHeader = type { %struct.ExpandedObjectHeader, i32, i32, i32, i32, i32, ptr, i64, ptr, ptr, i32, i64, i64, i32, i8, ptr, ptr, ptr, ptr, ptr, ptr, %struct.MemoryContextCallback }
%struct.ExpandedObjectHeader = type { i32, ptr, ptr, [10 x i8], [10 x i8] }
%struct.MemoryContextCallback = type { ptr, ptr, ptr }
%struct.PLpgSQL_recfield = type { i32, i32, ptr, i32, i32, i64, %struct.ExpandedRecordFieldInfo }
%struct.ExpandedRecordFieldInfo = type { i32, i32, i32, i32 }
%struct.ExprEvalStep = type { i64, ptr, ptr, %union.anon.1 }
%union.anon.1 = type { %struct.anon.26 }
%struct.anon.26 = type { ptr, ptr, i32, i32, ptr, ptr }
%struct.anon.15 = type { ptr, ptr, ptr, i32, i32 }

@.str.2 = private unnamed_addr constant [11 x i8] c"plpgsql-18\00", align 1
@.str.4 = private unnamed_addr constant [10 x i8] c"pl_exec.c\00", align 1
@.str.16 = private unnamed_addr constant [30 x i8] c"record \22%s\22 has no field \22%s\22\00", align 1
@__func__.plpgsql_param_eval_recfield = private unnamed_addr constant [28 x i8] c"plpgsql_param_eval_recfield\00", align 1
@.str.137 = private unnamed_addr constant [75 x i8] c"type of parameter %d (%s) does not match that when preparing the plan (%s)\00", align 1

; Function Attrs: inlinehint nounwind uwtable
define internal i64 @expanded_record_get_field(ptr noundef %0, i32 noundef %1, ptr noundef %2) #2 {
  %4 = alloca i64, align 8
  %5 = alloca ptr, align 8
  %6 = alloca i32, align 4
  %7 = alloca ptr, align 8
  store ptr %0, ptr %5, align 8
  store i32 %1, ptr %6, align 4
  store ptr %2, ptr %7, align 8
  %8 = load ptr, ptr %5, align 8
  %9 = getelementptr inbounds nuw %struct.ExpandedRecordHeader, ptr %8, i32 0, i32 2
  %10 = load i32, ptr %9, align 4
  %11 = and i32 %10, 4
  %12 = icmp ne i32 %11, 0
  br i1 %12, label %13, label %50

13:                                               ; preds = %3
  %14 = load i32, ptr %6, align 4
  %15 = icmp sgt i32 %14, 0
  br i1 %15, label %16, label %22

16:                                               ; preds = %13
  %17 = load i32, ptr %6, align 4
  %18 = load ptr, ptr %5, align 8
  %19 = getelementptr inbounds nuw %struct.ExpandedRecordHeader, ptr %18, i32 0, i32 10
  %20 = load i32, ptr %19, align 8
  %21 = icmp sle i32 %17, %20
  br label %22

22:                                               ; preds = %16, %13
  %23 = phi i1 [ false, %13 ], [ %21, %16 ]
  %24 = zext i1 %23 to i32
  %25 = icmp ne i32 %24, 0
  %26 = zext i1 %25 to i32
  %27 = sext i32 %26 to i64
  %28 = call i64 @llvm.expect.i64(i64 %27, i64 1)
  %29 = icmp ne i64 %28, 0
  br i1 %29, label %30, label %50

30:                                               ; preds = %22
  %31 = load ptr, ptr %5, align 8
  %32 = getelementptr inbounds nuw %struct.ExpandedRecordHeader, ptr %31, i32 0, i32 9
  %33 = load ptr, ptr %32, align 8
  %34 = load i32, ptr %6, align 4
  %35 = sub i32 %34, 1
  %36 = sext i32 %35 to i64
  %37 = getelementptr inbounds i8, ptr %33, i64 %36
  %38 = load i8, ptr %37, align 1, !range !3, !noundef !4
  %39 = trunc i8 %38 to i1
  %40 = load ptr, ptr %7, align 8
  %41 = zext i1 %39 to i8
  store i8 %41, ptr %40, align 1
  %42 = load ptr, ptr %5, align 8
  %43 = getelementptr inbounds nuw %struct.ExpandedRecordHeader, ptr %42, i32 0, i32 8
  %44 = load ptr, ptr %43, align 8
  %45 = load i32, ptr %6, align 4
  %46 = sub i32 %45, 1
  %47 = sext i32 %46 to i64
  %48 = getelementptr inbounds i64, ptr %44, i64 %47
  %49 = load i64, ptr %48, align 8
  store i64 %49, ptr %4, align 8
  br label %55

50:                                               ; preds = %22, %3
  %51 = load ptr, ptr %5, align 8
  %52 = load i32, ptr %6, align 4
  %53 = load ptr, ptr %7, align 8
  %54 = call i64 @expanded_record_fetch_field(ptr noundef %51, i32 noundef %52, ptr noundef %53)
  store i64 %54, ptr %4, align 8
  br label %55

55:                                               ; preds = %50, %30
  %56 = load i64, ptr %4, align 8
  ret i64 %56
}

; Function Attrs: nounwind uwtable
define internal void @plpgsql_param_eval_recfield(ptr noundef %0, ptr noundef %1, ptr noundef %2) #0 {
  %4 = alloca ptr, align 8
  %5 = alloca ptr, align 8
  %6 = alloca ptr, align 8
  %7 = alloca ptr, align 8
  %8 = alloca ptr, align 8
  %9 = alloca i32, align 4
  %10 = alloca ptr, align 8
  %11 = alloca ptr, align 8
  %12 = alloca ptr, align 8
  store ptr %0, ptr %4, align 8
  store ptr %1, ptr %5, align 8
  store ptr %2, ptr %6, align 8
  call void @llvm.lifetime.start.p0(i64 8, ptr %7) #12
  call void @llvm.lifetime.start.p0(i64 8, ptr %8) #12
  call void @llvm.lifetime.start.p0(i64 4, ptr %9) #12
  %13 = load ptr, ptr %5, align 8
  %14 = getelementptr inbounds nuw %struct.ExprEvalStep, ptr %13, i32 0, i32 3
  %15 = getelementptr inbounds nuw %struct.anon.15, ptr %14, i32 0, i32 3
  %16 = load i32, ptr %15, align 8
  %17 = sub i32 %16, 1
  store i32 %17, ptr %9, align 4
  call void @llvm.lifetime.start.p0(i64 8, ptr %10) #12
  call void @llvm.lifetime.start.p0(i64 8, ptr %11) #12
  call void @llvm.lifetime.start.p0(i64 8, ptr %12) #12
  %18 = load ptr, ptr %6, align 8
  %19 = getelementptr inbounds nuw %struct.ExprContext, ptr %18, i32 0, i32 7
  %20 = load ptr, ptr %19, align 8
  store ptr %20, ptr %7, align 8
  %21 = load ptr, ptr %7, align 8
  %22 = getelementptr inbounds nuw %struct.ParamListInfoData, ptr %21, i32 0, i32 1
  %23 = load ptr, ptr %22, align 8
  store ptr %23, ptr %8, align 8
  %24 = load ptr, ptr %8, align 8
  %25 = getelementptr inbounds nuw %struct.PLpgSQL_execstate, ptr %24, i32 0, i32 20
  %26 = load ptr, ptr %25, align 8
  %27 = load i32, ptr %9, align 4
  %28 = sext i32 %27 to i64
  %29 = getelementptr inbounds ptr, ptr %26, i64 %28
  %30 = load ptr, ptr %29, align 8
  store ptr %30, ptr %10, align 8
  %31 = load ptr, ptr %8, align 8
  %32 = getelementptr inbounds nuw %struct.PLpgSQL_execstate, ptr %31, i32 0, i32 20
  %33 = load ptr, ptr %32, align 8
  %34 = load ptr, ptr %10, align 8
  %35 = getelementptr inbounds nuw %struct.PLpgSQL_recfield, ptr %34, i32 0, i32 3
  %36 = load i32, ptr %35, align 8
  %37 = sext i32 %36 to i64
  %38 = getelementptr inbounds ptr, ptr %33, i64 %37
  %39 = load ptr, ptr %38, align 8
  store ptr %39, ptr %11, align 8
  %40 = load ptr, ptr %11, align 8
  %41 = getelementptr inbounds nuw %struct.PLpgSQL_rec, ptr %40, i32 0, i32 10
  %42 = load ptr, ptr %41, align 8
  store ptr %42, ptr %12, align 8
  %43 = load ptr, ptr %12, align 8
  %44 = icmp eq ptr %43, null
  br i1 %44, label %45, label %51

45:                                               ; preds = %3
  %46 = load ptr, ptr %8, align 8
  %47 = load ptr, ptr %11, align 8
  call void @instantiate_empty_record_variable(ptr noundef %46, ptr noundef %47)
  %48 = load ptr, ptr %11, align 8
  %49 = getelementptr inbounds nuw %struct.PLpgSQL_rec, ptr %48, i32 0, i32 10
  %50 = load ptr, ptr %49, align 8
  store ptr %50, ptr %12, align 8
  br label %51

51:                                               ; preds = %45, %3
  %52 = load ptr, ptr %10, align 8
  %53 = getelementptr inbounds nuw %struct.PLpgSQL_recfield, ptr %52, i32 0, i32 5
  %54 = load i64, ptr %53, align 8
  %55 = load ptr, ptr %12, align 8
  %56 = getelementptr inbounds nuw %struct.ExpandedRecordHeader, ptr %55, i32 0, i32 7
  %57 = load i64, ptr %56, align 8
  %58 = icmp ne i64 %54, %57
  %59 = zext i1 %58 to i32
  %60 = icmp ne i32 %59, 0
  %61 = zext i1 %60 to i32
  %62 = sext i32 %61 to i64
  %63 = call i64 @llvm.expect.i64(i64 %62, i64 0)
  %64 = icmp ne i64 %63, 0
  br i1 %64, label %65, label %97

65:                                               ; preds = %51
  %66 = load ptr, ptr %12, align 8
  %67 = load ptr, ptr %10, align 8
  %68 = getelementptr inbounds nuw %struct.PLpgSQL_recfield, ptr %67, i32 0, i32 2
  %69 = load ptr, ptr %68, align 8
  %70 = load ptr, ptr %10, align 8
  %71 = getelementptr inbounds nuw %struct.PLpgSQL_recfield, ptr %70, i32 0, i32 6
  %72 = call zeroext i1 @expanded_record_lookup_field(ptr noundef %66, ptr noundef %69, ptr noundef %71)
  br i1 %72, label %91, label %73

73:                                               ; preds = %65
  br label %74

74:                                               ; preds = %73
  br i1 true, label %75, label %77

75:                                               ; preds = %74
  %76 = call zeroext i1 @errstart_cold(i32 noundef 21, ptr noundef @.str.2) #13
  br i1 %76, label %79, label %88

77:                                               ; preds = %74
  %78 = call zeroext i1 @errstart(i32 noundef 21, ptr noundef @.str.2)
  br i1 %78, label %79, label %88

79:                                               ; preds = %77, %75
  %80 = call i32 @errcode(i32 noundef 50360452)
  %81 = load ptr, ptr %11, align 8
  %82 = getelementptr inbounds nuw %struct.PLpgSQL_rec, ptr %81, i32 0, i32 2
  %83 = load ptr, ptr %82, align 8
  %84 = load ptr, ptr %10, align 8
  %85 = getelementptr inbounds nuw %struct.PLpgSQL_recfield, ptr %84, i32 0, i32 2
  %86 = load ptr, ptr %85, align 8
  %87 = call i32 (ptr, ...) @errmsg(ptr noundef @.str.16, ptr noundef %83, ptr noundef %86)
  call void @errfinish(ptr noundef @.str.4, i32 noundef 6797, ptr noundef @__func__.plpgsql_param_eval_recfield)
  br label %88

88:                                               ; preds = %79, %77, %75
  unreachable

89:                                               ; No predecessors!
  br label %90

90:                                               ; preds = %89
  br label %91

91:                                               ; preds = %90, %65
  %92 = load ptr, ptr %12, align 8
  %93 = getelementptr inbounds nuw %struct.ExpandedRecordHeader, ptr %92, i32 0, i32 7
  %94 = load i64, ptr %93, align 8
  %95 = load ptr, ptr %10, align 8
  %96 = getelementptr inbounds nuw %struct.PLpgSQL_recfield, ptr %95, i32 0, i32 5
  store i64 %94, ptr %96, align 8
  br label %97

97:                                               ; preds = %91, %51
  %98 = load ptr, ptr %12, align 8
  %99 = load ptr, ptr %10, align 8
  %100 = getelementptr inbounds nuw %struct.PLpgSQL_recfield, ptr %99, i32 0, i32 6
  %101 = getelementptr inbounds nuw %struct.ExpandedRecordFieldInfo, ptr %100, i32 0, i32 0
  %102 = load i32, ptr %101, align 8
  %103 = load ptr, ptr %5, align 8
  %104 = getelementptr inbounds nuw %struct.ExprEvalStep, ptr %103, i32 0, i32 2
  %105 = load ptr, ptr %104, align 8
  %106 = call i64 @expanded_record_get_field(ptr noundef %98, i32 noundef %102, ptr noundef %105)
  %107 = load ptr, ptr %5, align 8
  %108 = getelementptr inbounds nuw %struct.ExprEvalStep, ptr %107, i32 0, i32 1
  %109 = load ptr, ptr %108, align 8
  store i64 %106, ptr %109, align 8
  %110 = load ptr, ptr %10, align 8
  %111 = getelementptr inbounds nuw %struct.PLpgSQL_recfield, ptr %110, i32 0, i32 6
  %112 = getelementptr inbounds nuw %struct.ExpandedRecordFieldInfo, ptr %111, i32 0, i32 1
  %113 = load i32, ptr %112, align 4
  %114 = load ptr, ptr %5, align 8
  %115 = getelementptr inbounds nuw %struct.ExprEvalStep, ptr %114, i32 0, i32 3
  %116 = getelementptr inbounds nuw %struct.anon.15, ptr %115, i32 0, i32 4
  %117 = load i32, ptr %116, align 4
  %118 = icmp ne i32 %113, %117
  %119 = zext i1 %118 to i32
  %120 = icmp ne i32 %119, 0
  %121 = zext i1 %120 to i32
  %122 = sext i32 %121 to i64
  %123 = call i64 @llvm.expect.i64(i64 %122, i64 0)
  %124 = icmp ne i64 %123, 0
  br i1 %124, label %125, label %151

125:                                              ; preds = %97
  br label %126

126:                                              ; preds = %125
  br i1 true, label %127, label %129

127:                                              ; preds = %126
  %128 = call zeroext i1 @errstart_cold(i32 noundef 21, ptr noundef @.str.2) #13
  br i1 %128, label %131, label %148

129:                                              ; preds = %126
  %130 = call zeroext i1 @errstart(i32 noundef 21, ptr noundef @.str.2)
  br i1 %130, label %131, label %148

131:                                              ; preds = %129, %127
  %132 = call i32 @errcode(i32 noundef 67141764)
  %133 = load ptr, ptr %5, align 8
  %134 = getelementptr inbounds nuw %struct.ExprEvalStep, ptr %133, i32 0, i32 3
  %135 = getelementptr inbounds nuw %struct.anon.15, ptr %134, i32 0, i32 3
  %136 = load i32, ptr %135, align 8
  %137 = load ptr, ptr %10, align 8
  %138 = getelementptr inbounds nuw %struct.PLpgSQL_recfield, ptr %137, i32 0, i32 6
  %139 = getelementptr inbounds nuw %struct.ExpandedRecordFieldInfo, ptr %138, i32 0, i32 1
  %140 = load i32, ptr %139, align 4
  %141 = call ptr @format_type_be(i32 noundef %140)
  %142 = load ptr, ptr %5, align 8
  %143 = getelementptr inbounds nuw %struct.ExprEvalStep, ptr %142, i32 0, i32 3
  %144 = getelementptr inbounds nuw %struct.anon.15, ptr %143, i32 0, i32 4
  %145 = load i32, ptr %144, align 4
  %146 = call ptr @format_type_be(i32 noundef %145)
  %147 = call i32 (ptr, ...) @errmsg(ptr noundef @.str.137, i32 noundef %136, ptr noundef %141, ptr noundef %146)
  call void @errfinish(ptr noundef @.str.4, i32 noundef 6813, ptr noundef @__func__.plpgsql_param_eval_recfield)
  br label %148

148:                                              ; preds = %131, %129, %127
  unreachable

149:                                              ; No predecessors!
  br label %150

150:                                              ; preds = %149
  br label %151

151:                                              ; preds = %150, %97
  call void @llvm.lifetime.end.p0(i64 8, ptr %12) #12
  call void @llvm.lifetime.end.p0(i64 8, ptr %11) #12
  call void @llvm.lifetime.end.p0(i64 8, ptr %10) #12
  call void @llvm.lifetime.end.p0(i64 4, ptr %9) #12
  call void @llvm.lifetime.end.p0(i64 8, ptr %8) #12
  call void @llvm.lifetime.end.p0(i64 8, ptr %7) #12
  ret void
}