; Function Attrs: nounwind uwtable
define internal void @plpgsql_param_eval_recfield(ptr readnone captures(none) %0, ptr noundef readonly captures(none) %1, ptr noundef readonly captures(none) %2) #0 {
  %4 = getelementptr inbounds nuw i8, ptr %1, i64 48
  %5 = load i32, ptr %4, align 8
  %6 = add i32 %5, -1
  %7 = getelementptr inbounds nuw i8, ptr %2, i64 56
  %8 = load ptr, ptr %7, align 8
  %9 = getelementptr inbounds nuw i8, ptr %8, i64 8
  %10 = load ptr, ptr %9, align 8
  %11 = getelementptr inbounds nuw i8, ptr %10, i64 112
  %12 = load ptr, ptr %11, align 8
  %13 = sext i32 %6 to i64
  %14 = getelementptr inbounds ptr, ptr %12, i64 %13
  %15 = load ptr, ptr %14, align 8
  %16 = getelementptr inbounds nuw i8, ptr %15, i64 16
  %17 = load i32, ptr %16, align 8
  %18 = sext i32 %17 to i64
  %19 = getelementptr inbounds ptr, ptr %12, i64 %18
  %20 = load ptr, ptr %19, align 8
  %21 = getelementptr inbounds nuw i8, ptr %20, i64 48
  %22 = load ptr, ptr %21, align 8
  %23 = icmp eq ptr %22, null
  br i1 %23, label %24, label %26

24:                                               ; preds = %3
  tail call fastcc void @instantiate_empty_record_variable(ptr noundef nonnull %10, ptr noundef nonnull %20)
  %25 = load ptr, ptr %21, align 8
  br label %26

26:                                               ; preds = %24, %3
  %.0 = phi ptr [ %25, %24 ], [ %22, %3 ]
  %27 = getelementptr inbounds nuw i8, ptr %15, i64 24
  %28 = load i64, ptr %27, align 8
  %29 = getelementptr inbounds nuw i8, ptr %.0, i64 80
  %30 = load i64, ptr %29, align 8
  %.not = icmp eq i64 %28, %30
  br i1 %.not, label %45, label %31, !prof !7

31:                                               ; preds = %26
  %32 = getelementptr inbounds nuw i8, ptr %15, i64 8
  %33 = load ptr, ptr %32, align 8
  %34 = getelementptr inbounds nuw i8, ptr %15, i64 32
  %35 = tail call zeroext i1 @expanded_record_lookup_field(ptr noundef nonnull %.0, ptr noundef %33, ptr noundef nonnull %34) #12
  br i1 %35, label %43, label %36

36:                                               ; preds = %31
  %37 = tail call zeroext i1 @errstart_cold(i32 noundef 21, ptr noundef nonnull @.str.2) #13
  tail call void @llvm.assume(i1 %37)
  %38 = tail call i32 @errcode(i32 noundef 50360452) #12
  %39 = getelementptr inbounds nuw i8, ptr %20, i64 8
  %40 = load ptr, ptr %39, align 8
  %41 = load ptr, ptr %32, align 8
  %42 = tail call i32 (ptr, ...) @errmsg(ptr noundef nonnull @.str.16, ptr noundef %40, ptr noundef %41) #12
  tail call void @errfinish(ptr noundef nonnull @.str.4, i32 noundef 6797, ptr noundef nonnull @__func__.plpgsql_param_eval_recfield) #12
  unreachable

43:                                               ; preds = %31
  %44 = load i64, ptr %29, align 8
  store i64 %44, ptr %27, align 8
  br label %45

45:                                               ; preds = %43, %26
  %46 = getelementptr inbounds nuw i8, ptr %15, i64 32
  %47 = load i32, ptr %46, align 8
  %48 = getelementptr inbounds nuw i8, ptr %1, i64 16
  %49 = load ptr, ptr %48, align 8
  %50 = getelementptr inbounds nuw i8, ptr %.0, i64 52
  %51 = load i32, ptr %50, align 4
  %52 = and i32 %51, 4
  %.not.i = icmp ne i32 %52, 0
  %53 = icmp sgt i32 %47, 0
  %or.cond.i = and i1 %53, %.not.i
  br i1 %or.cond.i, label %54, label %.critedge.i

54:                                               ; preds = %45
  %55 = getelementptr inbounds nuw i8, ptr %.0, i64 104
  %56 = load i32, ptr %55, align 8
  %.not13.i = icmp sgt i32 %47, %56
  br i1 %.not13.i, label %.critedge.i, label %57, !prof !9

57:                                               ; preds = %54
  %58 = getelementptr inbounds nuw i8, ptr %.0, i64 96
  %59 = load ptr, ptr %58, align 8
  %60 = add nsw i32 %47, -1
  %61 = zext nneg i32 %60 to i64
  %62 = getelementptr inbounds nuw i8, ptr %59, i64 %61
  %63 = load i8, ptr %62, align 1, !range !3, !noundef !4
  store i8 %63, ptr %49, align 1
  %64 = getelementptr inbounds nuw i8, ptr %.0, i64 88
  %65 = load ptr, ptr %64, align 8
  %66 = getelementptr inbounds nuw i64, ptr %65, i64 %61
  %67 = load i64, ptr %66, align 8
  br label %expanded_record_get_field.exit

.critedge.i:                                      ; preds = %54, %45
  %68 = tail call i64 @expanded_record_fetch_field(ptr noundef nonnull %.0, i32 noundef %47, ptr noundef %49) #12
  br label %expanded_record_get_field.exit

expanded_record_get_field.exit:                   ; preds = %57, %.critedge.i
  %.0.i = phi i64 [ %67, %57 ], [ %68, %.critedge.i ]
  %69 = getelementptr inbounds nuw i8, ptr %1, i64 8
  %70 = load ptr, ptr %69, align 8
  store i64 %.0.i, ptr %70, align 8
  %71 = getelementptr inbounds nuw i8, ptr %15, i64 36
  %72 = load i32, ptr %71, align 4
  %73 = getelementptr inbounds nuw i8, ptr %1, i64 52
  %74 = load i32, ptr %73, align 4
  %.not30 = icmp eq i32 %72, %74
  br i1 %.not30, label %84, label %75, !prof !7

75:                                               ; preds = %expanded_record_get_field.exit
  %76 = tail call zeroext i1 @errstart_cold(i32 noundef 21, ptr noundef nonnull @.str.2) #13
  tail call void @llvm.assume(i1 %76)
  %77 = tail call i32 @errcode(i32 noundef 67141764) #12
  %78 = load i32, ptr %4, align 8
  %79 = load i32, ptr %71, align 4
  %80 = tail call ptr @format_type_be(i32 noundef %79) #12
  %81 = load i32, ptr %73, align 4
  %82 = tail call ptr @format_type_be(i32 noundef %81) #12
  %83 = tail call i32 (ptr, ...) @errmsg(ptr noundef nonnull @.str.137, i32 noundef %78, ptr noundef %80, ptr noundef %82) #12
  tail call void @errfinish(ptr noundef nonnull @.str.4, i32 noundef 6813, ptr noundef nonnull @__func__.plpgsql_param_eval_recfield) #12
  unreachable

84:                                               ; preds = %expanded_record_get_field.exit
  ret void
}